; Function Attrs: mustprogress uwtable
define noundef zeroext i1 @_ZN2cv8ximgproc2rl22isRLMorphologyPossibleERKNS_11_InputArrayE(ptr noundef nonnull align 8 dereferenceable(24) %0) local_unnamed_addr #3 personality ptr @__gxx_personality_v0 {
  %2 = alloca %"class.std::vector", align 8
  %3 = alloca %"class.cv::Size_", align 4
  call void @llvm.memset.p0.i64(ptr noundef nonnull align 8 dereferenceable(24) %2, i8 0, i64 24, i1 false)
  invoke fastcc void @_ZN2cv8ximgproc2rlL23convertInputArrayToRunsERKNS_11_InputArrayERSt6vectorINS1_6rlTypeESaIS6_EERNS_5Size_IiEE(ptr noundef nonnull align 8 dereferenceable(24) %0, ptr noundef nonnull align 8 dereferenceable(24) %2, ptr noundef nonnull align 4 dereferenceable(8) %3)
          to label %.preheader unwind label %22

.preheader:                                       ; preds = %1
  %4 = getelementptr inbounds i8, ptr %2, i64 8
  %5 = load ptr, ptr %4, align 8
  %6 = load ptr, ptr %2, align 8
  %7 = ptrtoint ptr %5 to i64
  %8 = ptrtoint ptr %6 to i64
  %9 = sub i64 %7, %8
  %10 = sdiv exact i64 %9, 12
  %11 = trunc i64 %10 to i32
  %invariant.gep = getelementptr i8, ptr %6, i64 -4
  %12 = icmp slt i32 %11, 2
  br i1 %12, label %._crit_edge, label %.lr.ph.preheader

.lr.ph.preheader:                                 ; preds = %.preheader
  %13 = and i64 %10, 2147483647
  %wide.trip.count = and i64 %10, 2147483647
  %14 = getelementptr inbounds i8, ptr %6, i64 20
  %15 = load i32, ptr %14, align 4
  %gep21 = getelementptr i8, ptr %6, i64 8
  %16 = load i32, ptr %gep21, align 4
  %17 = add nsw i32 %16, 1
  %.not22 = icmp eq i32 %15, %17
  br i1 %.not22, label %.lr.ph24, label %.thread

.lr.ph24:                                         ; preds = %.lr.ph.preheader, %.lr.ph
  %indvars.iv23 = phi i64 [ %indvars.iv.next, %.lr.ph ], [ 1, %.lr.ph.preheader ]
  %indvars.iv.next = add nuw nsw i64 %indvars.iv23, 1
  %exitcond = icmp eq i64 %indvars.iv.next, %wide.trip.count
  br i1 %exitcond, label %.thread.loopexit, label %.lr.ph, !llvm.loop !86

.lr.ph:                                           ; preds = %.lr.ph24
  %18 = getelementptr inbounds %"struct.cv::ximgproc::rl::rlType", ptr %6, i64 %indvars.iv.next, i32 2
  %19 = load i32, ptr %18, align 4
  %gep = getelementptr %"struct.cv::ximgproc::rl::rlType", ptr %invariant.gep, i64 %indvars.iv.next
  %20 = load i32, ptr %gep, align 4
  %21 = add nsw i32 %20, 1
  %.not = icmp eq i32 %19, %21
  br i1 %.not, label %.lr.ph24, label %.thread.loopexit, !llvm.loop !86

22:                                               ; preds = %1
  %23 = landingpad { ptr, i32 }
          cleanup
  %24 = load ptr, ptr %2, align 8
  %.not.i.i.i = icmp eq ptr %24, null
  br i1 %.not.i.i.i, label %_ZNSt6vectorIN2cv8ximgproc2rl6rlTypeESaIS3_EED2Ev.exit, label %25

25:                                               ; preds = %22
  call void @_ZdlPv(ptr noundef nonnull %24) #18
  br label %_ZNSt6vectorIN2cv8ximgproc2rl6rlTypeESaIS3_EED2Ev.exit

_ZNSt6vectorIN2cv8ximgproc2rl6rlTypeESaIS3_EED2Ev.exit: ; preds = %22, %25
  resume { ptr, i32 } %23

._crit_edge:                                      ; preds = %.preheader
  %.not.i.i.i8 = icmp eq ptr %6, null
  br i1 %.not.i.i.i8, label %_ZNSt6vectorIN2cv8ximgproc2rl6rlTypeESaIS3_EED2Ev.exit9, label %.thread

.thread.loopexit:                                 ; preds = %.lr.ph24, %.lr.ph
  %26 = icmp uge i64 %indvars.iv.next, %13
  br label %.thread

.thread:                                          ; preds = %.thread.loopexit, %.lr.ph.preheader, %._crit_edge
  %27 = phi i1 [ true, %._crit_edge ], [ false, %.lr.ph.preheader ], [ %26, %.thread.loopexit ]
  call void @_ZdlPv(ptr noundef nonnull %6) #18
  br label %_ZNSt6vectorIN2cv8ximgproc2rl6rlTypeESaIS3_EED2Ev.exit9

_ZNSt6vectorIN2cv8ximgproc2rl6rlTypeESaIS3_EED2Ev.exit9: ; preds = %._crit_edge, %.thread
  %28 = phi i1 [ true, %._crit_edge ], [ %27, %.thread ]
  ret i1 %28
}